; ModuleID = '31/485.c'
source_filename = "31/485.c"
target datalayout = "e-m:e-p270:32:32-p271:32:32-p272:64:64-i64:64-f80:128-n8:16:32:64-S128"
target triple = "x86_64-pc-linux-gnu"

%struct.stu = type { [50 x i8], [50 x i8], i8, i32, float, [50 x i8], %struct.stu* }

@.str = private unnamed_addr constant [3 x i8] c"%s\00", align 1
@.str.1 = private unnamed_addr constant [4 x i8] c"end\00", align 1
@.str.2 = private unnamed_addr constant [4 x i8] c" %s\00", align 1
@.str.3 = private unnamed_addr constant [4 x i8] c" %c\00", align 1
@.str.4 = private unnamed_addr constant [4 x i8] c" %d\00", align 1
@.str.5 = private unnamed_addr constant [4 x i8] c" %f\00", align 1
@.str.6 = private unnamed_addr constant [19 x i8] c"%s %s %c %d %g %s\0A\00", align 1

; Function Attrs: noinline nounwind uwtable
define dso_local void @main() #0 {
  %1 = alloca i32, align 4
  %2 = alloca %struct.stu*, align 8
  %3 = alloca %struct.stu*, align 8
  %4 = alloca %struct.stu*, align 8
  %5 = alloca %struct.stu*, align 8
  store i32 0, i32* %1, align 4
  store %struct.stu* null, %struct.stu** %2, align 8
  %6 = call noalias i8* @malloc(i64 100) #4
  %7 = bitcast i8* %6 to %struct.stu*
  store %struct.stu* %7, %struct.stu** %4, align 8
  store %struct.stu* %7, %struct.stu** %3, align 8
  br label %8

8:                                                ; preds = %0, %32
  %9 = load i32, i32* %1, align 4
  %10 = add nsw i32 %9, 1
  store i32 %10, i32* %1, align 4
  %11 = load i32, i32* %1, align 4
  %12 = icmp eq i32 %11, 1
  br i1 %12, label %13, label %17

13:                                               ; preds = %8
  %14 = load %struct.stu*, %struct.stu** %3, align 8
  store %struct.stu* %14, %struct.stu** %2, align 8
  %15 = load %struct.stu*, %struct.stu** %2, align 8
  %16 = getelementptr inbounds %struct.stu, %struct.stu* %15, i32 0, i32 6
  store %struct.stu* null, %struct.stu** %16, align 8
  br label %21

17:                                               ; preds = %8
  %18 = load %struct.stu*, %struct.stu** %4, align 8
  %19 = load %struct.stu*, %struct.stu** %3, align 8
  %20 = getelementptr inbounds %struct.stu, %struct.stu* %19, i32 0, i32 6
  store %struct.stu* %18, %struct.stu** %20, align 8
  br label %21

21:                                               ; preds = %17, %13
  %22 = load %struct.stu*, %struct.stu** %3, align 8
  %23 = getelementptr inbounds %struct.stu, %struct.stu* %22, i32 0, i32 0
  %24 = getelementptr inbounds [50 x i8], [50 x i8]* %23, i64 0, i64 0
  %25 = call i32 (i8*, ...) @__isoc99_scanf(i8* getelementptr inbounds ([3 x i8], [3 x i8]* @.str, i64 0, i64 0), i8* %24)
  %26 = load %struct.stu*, %struct.stu** %3, align 8
  %27 = getelementptr inbounds %struct.stu, %struct.stu* %26, i32 0, i32 0
  %28 = getelementptr inbounds [50 x i8], [50 x i8]* %27, i64 0, i64 0
  %29 = call i32 @strcmp(i8* %28, i8* getelementptr inbounds ([4 x i8], [4 x i8]* @.str.1, i64 0, i64 0)) #5
  %30 = icmp eq i32 %29, 0
  br i1 %30, label %31, label %32

31:                                               ; preds = %21
  br label %53

32:                                               ; preds = %21
  %33 = load %struct.stu*, %struct.stu** %3, align 8
  %34 = getelementptr inbounds %struct.stu, %struct.stu* %33, i32 0, i32 1
  %35 = getelementptr inbounds [50 x i8], [50 x i8]* %34, i64 0, i64 0
  %36 = call i32 (i8*, ...) @__isoc99_scanf(i8* getelementptr inbounds ([4 x i8], [4 x i8]* @.str.2, i64 0, i64 0), i8* %35)
  %37 = load %struct.stu*, %struct.stu** %3, align 8
  %38 = getelementptr inbounds %struct.stu, %struct.stu* %37, i32 0, i32 2
  %39 = call i32 (i8*, ...) @__isoc99_scanf(i8* getelementptr inbounds ([4 x i8], [4 x i8]* @.str.3, i64 0, i64 0), i8* %38)
  %40 = load %struct.stu*, %struct.stu** %3, align 8
  %41 = getelementptr inbounds %struct.stu, %struct.stu* %40, i32 0, i32 3
  %42 = call i32 (i8*, ...) @__isoc99_scanf(i8* getelementptr inbounds ([4 x i8], [4 x i8]* @.str.4, i64 0, i64 0), i32* %41)
  %43 = load %struct.stu*, %struct.stu** %3, align 8
  %44 = getelementptr inbounds %struct.stu, %struct.stu* %43, i32 0, i32 4
  %45 = call i32 (i8*, ...) @__isoc99_scanf(i8* getelementptr inbounds ([4 x i8], [4 x i8]* @.str.5, i64 0, i64 0), float* %44)
  %46 = load %struct.stu*, %struct.stu** %3, align 8
  %47 = getelementptr inbounds %struct.stu, %struct.stu* %46, i32 0, i32 5
  %48 = getelementptr inbounds [50 x i8], [50 x i8]* %47, i64 0, i64 0
  %49 = call i32 (i8*, ...) @__isoc99_scanf(i8* getelementptr inbounds ([4 x i8], [4 x i8]* @.str.2, i64 0, i64 0), i8* %48)
  %50 = load %struct.stu*, %struct.stu** %3, align 8
  store %struct.stu* %50, %struct.stu** %4, align 8
  %51 = call noalias i8* @malloc(i64 100) #4
  %52 = bitcast i8* %51 to %struct.stu*
  store %struct.stu* %52, %struct.stu** %3, align 8
  br label %8

53:                                               ; preds = %31
  %54 = load %struct.stu*, %struct.stu** %4, align 8
  store %struct.stu* %54, %struct.stu** %5, align 8
  %55 = load %struct.stu*, %struct.stu** %5, align 8
  %56 = getelementptr inbounds %struct.stu, %struct.stu* %55, i32 0, i32 6
  %57 = load %struct.stu*, %struct.stu** %56, align 8
  %58 = icmp ne %struct.stu* %57, null
  br i1 %58, label %59, label %89

59:                                               ; preds = %53
  br label %60

60:                                               ; preds = %85, %59
  %61 = load %struct.stu*, %struct.stu** %5, align 8
  %62 = getelementptr inbounds %struct.stu, %struct.stu* %61, i32 0, i32 0
  %63 = getelementptr inbounds [50 x i8], [50 x i8]* %62, i64 0, i64 0
  %64 = load %struct.stu*, %struct.stu** %5, align 8
  %65 = getelementptr inbounds %struct.stu, %struct.stu* %64, i32 0, i32 1
  %66 = getelementptr inbounds [50 x i8], [50 x i8]* %65, i64 0, i64 0
  %67 = load %struct.stu*, %struct.stu** %5, align 8
  %68 = getelementptr inbounds %struct.stu, %struct.stu* %67, i32 0, i32 2
  %69 = load i8, i8* %68, align 4
  %70 = sext i8 %69 to i32
  %71 = load %struct.stu*, %struct.stu** %5, align 8
  %72 = getelementptr inbounds %struct.stu, %struct.stu* %71, i32 0, i32 3
  %73 = load i32, i32* %72, align 8
  %74 = load %struct.stu*, %struct.stu** %5, align 8
  %75 = getelementptr inbounds %struct.stu, %struct.stu* %74, i32 0, i32 4
  %76 = load float, float* %75, align 4
  %77 = fpext float %76 to double
  %78 = load %struct.stu*, %struct.stu** %5, align 8
  %79 = getelementptr inbounds %struct.stu, %struct.stu* %78, i32 0, i32 5
  %80 = getelementptr inbounds [50 x i8], [50 x i8]* %79, i64 0, i64 0
  %81 = call i32 (i8*, ...) @printf(i8* getelementptr inbounds ([19 x i8], [19 x i8]* @.str.6, i64 0, i64 0), i8* %63, i8* %66, i32 %70, i32 %73, double %77, i8* %80)
  %82 = load %struct.stu*, %struct.stu** %5, align 8
  %83 = getelementptr inbounds %struct.stu, %struct.stu* %82, i32 0, i32 6
  %84 = load %struct.stu*, %struct.stu** %83, align 8
  store %struct.stu* %84, %struct.stu** %5, align 8
  br label %85

85:                                               ; preds = %60
  %86 = load %struct.stu*, %struct.stu** %5, align 8
  %87 = icmp ne %struct.stu* %86, null
  br i1 %87, label %60, label %88

88:                                               ; preds = %85
  br label %89

89:                                               ; preds = %88, %53
  ret void
}

; Function Attrs: nounwind
declare dso_local noalias i8* @malloc(i64) #1

declare dso_local i32 @__isoc99_scanf(i8*, ...) #2

; Function Attrs: nounwind readonly
declare dso_local i32 @strcmp(i8*, i8*) #3

declare dso_local i32 @printf(i8*, ...) #2


!llvm.module.flags = !{!0}
!llvm.ident = !{!1}

!0 = !{i32 1, !"wchar_size", i32 4}
!1 = !{!"clang version 10.0.0-4ubuntu1 "}
